; Function Attrs: mustprogress uwtable
define void @_ZN16veloxtpFlexLexer15yy_flush_bufferEP15yy_buffer_state(ptr noundef nonnull align 8 dereferenceable(732) %this, ptr noundef %b) local_unnamed_addr #4 align 2 {
entry:
  %tobool.not = icmp eq ptr %b, null
  br i1 %tobool.not, label %if.end10, label %if.end

if.end:                                           ; preds = %entry
  %yy_n_chars = getelementptr inbounds i8, ptr %b, i64 28
  store i32 0, ptr %yy_n_chars, align 4
  %yy_ch_buf = getelementptr inbounds i8, ptr %b, i64 8
  %0 = load ptr, ptr %yy_ch_buf, align 8
  store i8 0, ptr %0, align 1
  %1 = load ptr, ptr %yy_ch_buf, align 8
  %arrayidx3 = getelementptr inbounds i8, ptr %1, i64 1
  store i8 0, ptr %arrayidx3, align 1
  %2 = load ptr, ptr %yy_ch_buf, align 8
  %yy_buf_pos = getelementptr inbounds i8, ptr %b, i64 16
  store ptr %2, ptr %yy_buf_pos, align 8
  %yy_at_bol = getelementptr inbounds i8, ptr %b, i64 40
  store i32 1, ptr %yy_at_bol, align 8
  %yy_buffer_status = getelementptr inbounds i8, ptr %b, i64 56
  store i32 0, ptr %yy_buffer_status, align 8
  %yy_buffer_stack = getelementptr inbounds i8, ptr %this, i64 648
  %3 = load ptr, ptr %yy_buffer_stack, align 8
  %tobool6.not = icmp eq ptr %3, null
  br i1 %tobool6.not, label %cond.end, label %cond.true

cond.true:                                        ; preds = %if.end
  %yy_buffer_stack_top = getelementptr inbounds i8, ptr %this, i64 632
  %4 = load i64, ptr %yy_buffer_stack_top, align 8
  %arrayidx8 = getelementptr inbounds ptr, ptr %3, i64 %4
  %5 = load ptr, ptr %arrayidx8, align 8
  br label %cond.end

cond.end:                                         ; preds = %if.end, %cond.true
  %cond = phi ptr [ %5, %cond.true ], [ null, %if.end ]
  %cmp = icmp eq ptr %cond, %b
  br i1 %cmp, label %if.then9, label %if.end10

if.then9:                                         ; preds = %cond.end
  %yy_buffer_stack_top.i = getelementptr inbounds i8, ptr %this, i64 632
  %6 = load i64, ptr %yy_buffer_stack_top.i, align 8
  %arrayidx.i = getelementptr inbounds ptr, ptr %3, i64 %6
  %7 = load ptr, ptr %arrayidx.i, align 8
  %yy_n_chars.i = getelementptr inbounds i8, ptr %7, i64 28
  %8 = load i32, ptr %yy_n_chars.i, align 4
  %yy_n_chars2.i = getelementptr inbounds i8, ptr %this, i64 604
  store i32 %8, ptr %yy_n_chars2.i, align 4
  %9 = load ptr, ptr %arrayidx.i, align 8
  %yy_buf_pos.i = getelementptr inbounds i8, ptr %9, i64 16
  %10 = load ptr, ptr %yy_buf_pos.i, align 8
  %yy_c_buf_p.i = getelementptr inbounds i8, ptr %this, i64 608
  store ptr %10, ptr %yy_c_buf_p.i, align 8
  %yytext.i = getelementptr inbounds i8, ptr %this, i64 8
  store ptr %10, ptr %yytext.i, align 8
  %yyin.i = getelementptr inbounds i8, ptr %this, i64 48
  %vtable.i = load ptr, ptr %yyin.i, align 8
  %vbase.offset.ptr.i = getelementptr i8, ptr %vtable.i, i64 -24
  %vbase.offset.i = load i64, ptr %vbase.offset.ptr.i, align 8
  %add.ptr.i = getelementptr inbounds i8, ptr %yyin.i, i64 %vbase.offset.i
  %11 = load ptr, ptr %arrayidx.i, align 8
  %12 = load ptr, ptr %11, align 8
  %call.i = tail call noundef ptr @_ZNSt9basic_iosIcSt11char_traitsIcEE5rdbufEPSt15basic_streambufIcS1_E(ptr noundef nonnull align 8 dereferenceable(264) %add.ptr.i, ptr noundef %12)
  %13 = load ptr, ptr %yy_c_buf_p.i, align 8
  %14 = load i8, ptr %13, align 1
  %yy_hold_char.i = getelementptr inbounds i8, ptr %this, i64 600
  store i8 %14, ptr %yy_hold_char.i, align 8
  br label %if.end10

if.end10:                                         ; preds = %entry, %if.then9, %cond.end
  ret void
}